target datalayout = "e-m:e-p270:32:32-p271:32:32-p272:64:64-i64:64-i128:128-f80:128-n8:16:32:64-S128"
target triple = "x86_64-pc-linux-gnu"

%"class.glslang::TConstTraverser" = type { %"class.glslang::TIntermTraverser", i32, %"class.glslang::TConstUnionArray", i32, ptr, i32, i8, i8, i32, i8, i32, i32 }
%"class.glslang::TIntermTraverser" = type { ptr, i8, i8, i8, i8, i32, i32, %"class.glslang::TVector" }
%"class.glslang::TVector" = type { %"class.std::vector" }
%"class.std::vector" = type { %"struct.std::_Vector_base" }
%"struct.std::_Vector_base" = type { %"struct.std::_Vector_base<TIntermNode *, glslang::pool_allocator<TIntermNode *>>::_Vector_impl" }
%"struct.std::_Vector_base<TIntermNode *, glslang::pool_allocator<TIntermNode *>>::_Vector_impl" = type { %"class.glslang::pool_allocator", %"struct.std::_Vector_base<TIntermNode *, glslang::pool_allocator<TIntermNode *>>::_Vector_impl_data" }
%"class.glslang::pool_allocator" = type { ptr }
%"struct.std::_Vector_base<TIntermNode *, glslang::pool_allocator<TIntermNode *>>::_Vector_impl_data" = type { ptr, ptr, ptr }
%"class.glslang::TConstUnionArray" = type { ptr, ptr }

@_ZTVN7glslang16TConstUnionArrayE = linkonce_odr unnamed_addr constant { [4 x ptr] } { [4 x ptr] [ptr null, ptr null, ptr @_ZN7glslang16TConstUnionArrayD2Ev, ptr @_ZN7glslang16TConstUnionArrayD0Ev] }, comdat, align 8

; Function Attrs: mustprogress nounwind uwtable
define linkonce_odr void @_ZN7glslang14pool_allocatorIP11TIntermNodeE10deallocateEPS2_m(ptr noundef nonnull align 8 dereferenceable(8) %0, ptr noundef %1, i64 noundef %2) #0 comdat align 2 {
  %4 = alloca ptr, align 8
  %5 = alloca ptr, align 8
  %6 = alloca i64, align 8
  store ptr %0, ptr %4, align 8
  store ptr %1, ptr %5, align 8
  store i64 %2, ptr %6, align 8
  ret void
}

; Function Attrs: mustprogress nounwind uwtable
define linkonce_odr void @_ZN7glslang14pool_allocatorIP11TIntermNodeE7destroyEPS2_(ptr noundef nonnull align 8 dereferenceable(8) %0, ptr noundef %1) #0 comdat align 2 {
  %3 = alloca ptr, align 8
  %4 = alloca ptr, align 8
  store ptr %0, ptr %3, align 8
  store ptr %1, ptr %4, align 8
  ret void
}

; Function Attrs: mustprogress nounwind uwtable
define linkonce_odr void @_ZNSt16allocator_traitsIN7glslang14pool_allocatorIP11TIntermNodeEEE10deallocateERS4_PS3_m(ptr noundef nonnull align 8 dereferenceable(8) %0, ptr noundef %1, i64 noundef %2) #0 comdat align 2 {
  %4 = alloca ptr, align 8
  %5 = alloca ptr, align 8
  %6 = alloca i64, align 8
  store ptr %0, ptr %4, align 8
  store ptr %1, ptr %5, align 8
  store i64 %2, ptr %6, align 8
  %7 = load ptr, ptr %4, align 8
  %8 = load ptr, ptr %5, align 8
  %9 = load i64, ptr %6, align 8
  call void @_ZN7glslang14pool_allocatorIP11TIntermNodeE10deallocateEPS2_m(ptr noundef nonnull align 8 dereferenceable(8) %7, ptr noundef %8, i64 noundef %9)
  ret void
}

; Function Attrs: mustprogress nounwind uwtable
define linkonce_odr void @_ZNSt16allocator_traitsIN7glslang14pool_allocatorIP11TIntermNodeEEE10_S_destroyIS4_S3_EEDTcldtfp_7destroyfp0_EERT_PT0_i(ptr noundef nonnull align 8 dereferenceable(8) %0, ptr noundef %1, i32 noundef %2) #0 comdat align 2 {
  %4 = alloca ptr, align 8
  %5 = alloca ptr, align 8
  %6 = alloca i32, align 4
  store ptr %0, ptr %4, align 8
  store ptr %1, ptr %5, align 8
  store i32 %2, ptr %6, align 4
  %7 = load ptr, ptr %4, align 8
  %8 = load ptr, ptr %5, align 8
  call void @_ZN7glslang14pool_allocatorIP11TIntermNodeE7destroyEPS2_(ptr noundef nonnull align 8 dereferenceable(8) %7, ptr noundef %8)
  ret void
}

; Function Attrs: mustprogress nounwind uwtable
define linkonce_odr void @_ZNSt12_Vector_baseIP11TIntermNodeN7glslang14pool_allocatorIS1_EEE17_Vector_impl_dataC2Ev(ptr noundef nonnull align 8 dereferenceable(24) %0) unnamed_addr #0 comdat align 2 {
  %2 = alloca ptr, align 8
  store ptr %0, ptr %2, align 8
  %3 = load ptr, ptr %2, align 8
  %4 = getelementptr inbounds %"struct.std::_Vector_base<TIntermNode *, glslang::pool_allocator<TIntermNode *>>::_Vector_impl_data", ptr %3, i32 0, i32 0
  store ptr null, ptr %4, align 8
  %5 = getelementptr inbounds %"struct.std::_Vector_base<TIntermNode *, glslang::pool_allocator<TIntermNode *>>::_Vector_impl_data", ptr %3, i32 0, i32 1
  store ptr null, ptr %5, align 8
  %6 = getelementptr inbounds %"struct.std::_Vector_base<TIntermNode *, glslang::pool_allocator<TIntermNode *>>::_Vector_impl_data", ptr %3, i32 0, i32 2
  store ptr null, ptr %6, align 8
  ret void
}

; Function Attrs: mustprogress nounwind uwtable
define linkonce_odr void @_ZN7glslang14pool_allocatorIP11TIntermNodeEC2Ev(ptr noundef nonnull align 8 dereferenceable(8) %0) unnamed_addr #0 comdat align 2 {
  %2 = alloca ptr, align 8
  store ptr %0, ptr %2, align 8
  %3 = load ptr, ptr %2, align 8
  %4 = getelementptr inbounds %"class.glslang::pool_allocator", ptr %3, i32 0, i32 0
  %5 = call noundef nonnull align 8 dereferenceable(96) ptr @_ZN7glslang22GetThreadPoolAllocatorEv()
  store ptr %5, ptr %4, align 8
  ret void
}

; Function Attrs: mustprogress nounwind uwtable
define linkonce_odr void @_ZNSt12_Vector_baseIP11TIntermNodeN7glslang14pool_allocatorIS1_EEE13_M_deallocateEPS1_m(ptr noundef nonnull align 8 dereferenceable(32) %0, ptr noundef %1, i64 noundef %2) #0 comdat align 2 {
  %4 = alloca ptr, align 8
  %5 = alloca ptr, align 8
  %6 = alloca i64, align 8
  store ptr %0, ptr %4, align 8
  store ptr %1, ptr %5, align 8
  store i64 %2, ptr %6, align 8
  %7 = load ptr, ptr %4, align 8
  %8 = load ptr, ptr %5, align 8
  %9 = icmp ne ptr %8, null
  br i1 %9, label %10, label %14

10:                                               ; preds = %3
  %11 = getelementptr inbounds %"struct.std::_Vector_base", ptr %7, i32 0, i32 0
  %12 = load ptr, ptr %5, align 8
  %13 = load i64, ptr %6, align 8
  call void @_ZNSt16allocator_traitsIN7glslang14pool_allocatorIP11TIntermNodeEEE10deallocateERS4_PS3_m(ptr noundef nonnull align 8 dereferenceable(8) %11, ptr noundef %12, i64 noundef %13)
  br label %14

14:                                               ; preds = %10, %3
  ret void
}

; Function Attrs: mustprogress nounwind uwtable
define linkonce_odr void @_ZNSt16allocator_traitsIN7glslang14pool_allocatorIP11TIntermNodeEEE7destroyIS3_EEvRS4_PT_(ptr noundef nonnull align 8 dereferenceable(8) %0, ptr noundef %1) #0 comdat align 2 {
  %3 = alloca ptr, align 8
  %4 = alloca ptr, align 8
  store ptr %0, ptr %3, align 8
  store ptr %1, ptr %4, align 8
  %5 = load ptr, ptr %3, align 8
  %6 = load ptr, ptr %4, align 8
  call void @_ZNSt16allocator_traitsIN7glslang14pool_allocatorIP11TIntermNodeEEE10_S_destroyIS4_S3_EEDTcldtfp_7destroyfp0_EERT_PT0_i(ptr noundef nonnull align 8 dereferenceable(8) %5, ptr noundef %6, i32 noundef 0)
  ret void
}

; Function Attrs: mustprogress nounwind uwtable
define linkonce_odr void @_ZNSt12_Vector_baseIP11TIntermNodeN7glslang14pool_allocatorIS1_EEE12_Vector_implC2Ev(ptr noundef nonnull align 8 dereferenceable(32) %0) unnamed_addr #0 comdat align 2 {
  %2 = alloca ptr, align 8
  store ptr %0, ptr %2, align 8
  %3 = load ptr, ptr %2, align 8
  call void @_ZN7glslang14pool_allocatorIP11TIntermNodeEC2Ev(ptr noundef nonnull align 8 dereferenceable(8) %3)
  %4 = getelementptr inbounds i8, ptr %3, i64 8
  call void @_ZNSt12_Vector_baseIP11TIntermNodeN7glslang14pool_allocatorIS1_EEE17_Vector_impl_dataC2Ev(ptr noundef nonnull align 8 dereferenceable(24) %4) #4
  ret void
}

; Function Attrs: mustprogress nounwind uwtable
define linkonce_odr void @_ZNSt12_Vector_baseIP11TIntermNodeN7glslang14pool_allocatorIS1_EEED2Ev(ptr noundef nonnull align 8 dereferenceable(32) %0) unnamed_addr #0 comdat align 2 {
  %2 = alloca ptr, align 8
  store ptr %0, ptr %2, align 8
  %3 = load ptr, ptr %2, align 8
  %4 = getelementptr inbounds %"struct.std::_Vector_base", ptr %3, i32 0, i32 0
  %5 = getelementptr inbounds i8, ptr %4, i64 8
  %6 = getelementptr inbounds %"struct.std::_Vector_base<TIntermNode *, glslang::pool_allocator<TIntermNode *>>::_Vector_impl_data", ptr %5, i32 0, i32 0
  %7 = load ptr, ptr %6, align 8
  %8 = getelementptr inbounds %"struct.std::_Vector_base", ptr %3, i32 0, i32 0
  %9 = getelementptr inbounds i8, ptr %8, i64 8
  %10 = getelementptr inbounds %"struct.std::_Vector_base<TIntermNode *, glslang::pool_allocator<TIntermNode *>>::_Vector_impl_data", ptr %9, i32 0, i32 2
  %11 = load ptr, ptr %10, align 8
  %12 = getelementptr inbounds %"struct.std::_Vector_base", ptr %3, i32 0, i32 0
  %13 = getelementptr inbounds i8, ptr %12, i64 8
  %14 = getelementptr inbounds %"struct.std::_Vector_base<TIntermNode *, glslang::pool_allocator<TIntermNode *>>::_Vector_impl_data", ptr %13, i32 0, i32 0
  %15 = load ptr, ptr %14, align 8
  %16 = ptrtoint ptr %11 to i64
  %17 = ptrtoint ptr %15 to i64
  %18 = sub i64 %16, %17
  %19 = sdiv exact i64 %18, 8
  call void @_ZNSt12_Vector_baseIP11TIntermNodeN7glslang14pool_allocatorIS1_EEE13_M_deallocateEPS1_m(ptr noundef nonnull align 8 dereferenceable(32) %3, ptr noundef %7, i64 noundef %19)
  ret void
}

; Function Attrs: mustprogress nounwind uwtable
define linkonce_odr void @_ZSt8_DestroyIPP11TIntermNodeN7glslang14pool_allocatorIS1_EEEvT_S6_RT0_(ptr noundef %0, ptr noundef %1, ptr noundef nonnull align 8 dereferenceable(8) %2) #0 comdat {
  %4 = alloca ptr, align 8
  %5 = alloca ptr, align 8
  %6 = alloca ptr, align 8
  store ptr %0, ptr %4, align 8
  store ptr %1, ptr %5, align 8
  store ptr %2, ptr %6, align 8
  br label %7

7:                                                ; preds = %14, %3
  %8 = load ptr, ptr %4, align 8
  %9 = load ptr, ptr %5, align 8
  %10 = icmp ne ptr %8, %9
  br i1 %10, label %11, label %17

11:                                               ; preds = %7
  %12 = load ptr, ptr %6, align 8
  %13 = load ptr, ptr %4, align 8
  call void @_ZNSt16allocator_traitsIN7glslang14pool_allocatorIP11TIntermNodeEEE7destroyIS3_EEvRS4_PT_(ptr noundef nonnull align 8 dereferenceable(8) %12, ptr noundef %13)
  br label %14

14:                                               ; preds = %11
  %15 = load ptr, ptr %4, align 8
  %16 = getelementptr inbounds ptr, ptr %15, i32 1
  store ptr %16, ptr %4, align 8
  br label %7, !llvm.loop !15

17:                                               ; preds = %7
  ret void
}

; Function Attrs: mustprogress nounwind uwtable
define linkonce_odr noundef nonnull align 8 dereferenceable(8) ptr @_ZNSt12_Vector_baseIP11TIntermNodeN7glslang14pool_allocatorIS1_EEE19_M_get_Tp_allocatorEv(ptr noundef nonnull align 8 dereferenceable(32) %0) #0 comdat align 2 {
  %2 = alloca ptr, align 8
  store ptr %0, ptr %2, align 8
  %3 = load ptr, ptr %2, align 8
  %4 = getelementptr inbounds %"struct.std::_Vector_base", ptr %3, i32 0, i32 0
  ret ptr %4
}

; Function Attrs: mustprogress nounwind uwtable
define linkonce_odr void @_ZNSt12_Vector_baseIP11TIntermNodeN7glslang14pool_allocatorIS1_EEEC2Ev(ptr noundef nonnull align 8 dereferenceable(32) %0) unnamed_addr #0 comdat align 2 {
  %2 = alloca ptr, align 8
  store ptr %0, ptr %2, align 8
  %3 = load ptr, ptr %2, align 8
  %4 = getelementptr inbounds %"struct.std::_Vector_base", ptr %3, i32 0, i32 0
  call void @_ZNSt12_Vector_baseIP11TIntermNodeN7glslang14pool_allocatorIS1_EEE12_Vector_implC2Ev(ptr noundef nonnull align 8 dereferenceable(32) %4)
  ret void
}

; Function Attrs: mustprogress nounwind uwtable
define linkonce_odr void @_ZNSt6vectorIP11TIntermNodeN7glslang14pool_allocatorIS1_EEED2Ev(ptr noundef nonnull align 8 dereferenceable(32) %0) unnamed_addr #0 comdat align 2 {
  %2 = alloca ptr, align 8
  store ptr %0, ptr %2, align 8
  %3 = load ptr, ptr %2, align 8
  %4 = getelementptr inbounds %"struct.std::_Vector_base", ptr %3, i32 0, i32 0
  %5 = getelementptr inbounds i8, ptr %4, i64 8
  %6 = getelementptr inbounds %"struct.std::_Vector_base<TIntermNode *, glslang::pool_allocator<TIntermNode *>>::_Vector_impl_data", ptr %5, i32 0, i32 0
  %7 = load ptr, ptr %6, align 8
  %8 = getelementptr inbounds %"struct.std::_Vector_base", ptr %3, i32 0, i32 0
  %9 = getelementptr inbounds i8, ptr %8, i64 8
  %10 = getelementptr inbounds %"struct.std::_Vector_base<TIntermNode *, glslang::pool_allocator<TIntermNode *>>::_Vector_impl_data", ptr %9, i32 0, i32 1
  %11 = load ptr, ptr %10, align 8
  %12 = call noundef nonnull align 8 dereferenceable(8) ptr @_ZNSt12_Vector_baseIP11TIntermNodeN7glslang14pool_allocatorIS1_EEE19_M_get_Tp_allocatorEv(ptr noundef nonnull align 8 dereferenceable(32) %3) #4
  call void @_ZSt8_DestroyIPP11TIntermNodeN7glslang14pool_allocatorIS1_EEEvT_S6_RT0_(ptr noundef %7, ptr noundef %11, ptr noundef nonnull align 8 dereferenceable(8) %12)
  call void @_ZNSt12_Vector_baseIP11TIntermNodeN7glslang14pool_allocatorIS1_EEED2Ev(ptr noundef nonnull align 8 dereferenceable(32) %3) #4
  ret void
}

; Function Attrs: mustprogress nounwind uwtable
define linkonce_odr void @_ZNSt6vectorIP11TIntermNodeN7glslang14pool_allocatorIS1_EEEC2Ev(ptr noundef nonnull align 8 dereferenceable(32) %0) unnamed_addr #0 comdat align 2 {
  %2 = alloca ptr, align 8
  store ptr %0, ptr %2, align 8
  %3 = load ptr, ptr %2, align 8
  call void @_ZNSt12_Vector_baseIP11TIntermNodeN7glslang14pool_allocatorIS1_EEEC2Ev(ptr noundef nonnull align 8 dereferenceable(32) %3)
  ret void
}

; Function Attrs: mustprogress nounwind uwtable
define linkonce_odr void @_ZN7glslang7TVectorIP11TIntermNodeED2Ev(ptr noundef nonnull align 8 dereferenceable(32) %0) unnamed_addr #0 comdat align 2 {
  %2 = alloca ptr, align 8
  store ptr %0, ptr %2, align 8
  %3 = load ptr, ptr %2, align 8
  call void @_ZNSt6vectorIP11TIntermNodeN7glslang14pool_allocatorIS1_EEED2Ev(ptr noundef nonnull align 8 dereferenceable(32) %3) #4
  ret void
}

; Function Attrs: mustprogress nounwind uwtable
define linkonce_odr void @_ZN7glslang7TVectorIP11TIntermNodeEC2Ev(ptr noundef nonnull align 8 dereferenceable(32) %0) unnamed_addr #0 comdat align 2 {
  %2 = alloca ptr, align 8
  store ptr %0, ptr %2, align 8
  %3 = load ptr, ptr %2, align 8
  %4 = getelementptr inbounds i8, ptr %3, i64 0
  call void @llvm.memset.p0.i64(ptr align 8 %4, i8 0, i64 32, i1 false)
  call void @_ZNSt6vectorIP11TIntermNodeN7glslang14pool_allocatorIS1_EEEC2Ev(ptr noundef nonnull align 8 dereferenceable(32) %3)
  ret void
}

; Function Attrs: mustprogress nounwind uwtable
define linkonce_odr void @_ZN7glslang16TIntermTraverserD2Ev(ptr noundef nonnull align 8 dereferenceable(56) %0) unnamed_addr #0 comdat align 2 {
  %2 = alloca ptr, align 8
  store ptr %0, ptr %2, align 8
  %3 = load ptr, ptr %2, align 8
  store ptr getelementptr inbounds inrange(-16, 88) ({ [13 x ptr] }, ptr @_ZTVN7glslang16TIntermTraverserE, i32 0, i32 0, i32 2), ptr %3, align 8
  %4 = getelementptr inbounds %"class.glslang::TIntermTraverser", ptr %3, i32 0, i32 7
  call void @_ZN7glslang7TVectorIP11TIntermNodeED2Ev(ptr noundef nonnull align 8 dereferenceable(32) %4) #4
  ret void
}

; Function Attrs: mustprogress nounwind uwtable
define linkonce_odr void @_ZN7glslang16TConstUnionArrayD2Ev(ptr noundef nonnull align 8 dereferenceable(16) %0) unnamed_addr #0 comdat align 2 {
  %2 = alloca ptr, align 8
  store ptr %0, ptr %2, align 8
  ret void
}

; Function Attrs: mustprogress nounwind uwtable
define linkonce_odr void @_ZN7glslang16TConstUnionArrayC2ERKS0_(ptr noundef nonnull align 8 dereferenceable(16) %0, ptr noundef nonnull align 8 dereferenceable(16) %1) unnamed_addr #0 comdat align 2 {
  %3 = alloca ptr, align 8
  %4 = alloca ptr, align 8
  store ptr %0, ptr %3, align 8
  store ptr %1, ptr %4, align 8
  %5 = load ptr, ptr %3, align 8
  store ptr getelementptr inbounds inrange(-16, 16) ({ [4 x ptr] }, ptr @_ZTVN7glslang16TConstUnionArrayE, i32 0, i32 0, i32 2), ptr %5, align 8
  %6 = getelementptr inbounds %"class.glslang::TConstUnionArray", ptr %5, i32 0, i32 1
  %7 = load ptr, ptr %4, align 8
  %8 = getelementptr inbounds %"class.glslang::TConstUnionArray", ptr %7, i32 0, i32 1
  %9 = load ptr, ptr %8, align 8
  store ptr %9, ptr %6, align 8
  ret void
}

; Function Attrs: mustprogress nounwind uwtable
define linkonce_odr void @_ZN7glslang16TIntermTraverserC2Ebbbb(ptr noundef nonnull align 8 dereferenceable(56) %0, i1 noundef zeroext %1, i1 noundef zeroext %2, i1 noundef zeroext %3, i1 noundef zeroext %4) unnamed_addr #0 comdat align 2 {
  %6 = alloca ptr, align 8
  %7 = alloca i8, align 1
  %8 = alloca i8, align 1
  %9 = alloca i8, align 1
  %10 = alloca i8, align 1
  store ptr %0, ptr %6, align 8
  %11 = zext i1 %1 to i8
  store i8 %11, ptr %7, align 1
  %12 = zext i1 %2 to i8
  store i8 %12, ptr %8, align 1
  %13 = zext i1 %3 to i8
  store i8 %13, ptr %9, align 1
  %14 = zext i1 %4 to i8
  store i8 %14, ptr %10, align 1
  %15 = load ptr, ptr %6, align 8
  store ptr getelementptr inbounds inrange(-16, 88) ({ [13 x ptr] }, ptr @_ZTVN7glslang16TIntermTraverserE, i32 0, i32 0, i32 2), ptr %15, align 8
  %16 = getelementptr inbounds %"class.glslang::TIntermTraverser", ptr %15, i32 0, i32 1
  %17 = load i8, ptr %7, align 1
  %18 = trunc i8 %17 to i1
  %19 = zext i1 %18 to i8
  store i8 %19, ptr %16, align 8
  %20 = getelementptr inbounds %"class.glslang::TIntermTraverser", ptr %15, i32 0, i32 2
  %21 = load i8, ptr %8, align 1
  %22 = trunc i8 %21 to i1
  %23 = zext i1 %22 to i8
  store i8 %23, ptr %20, align 1
  %24 = getelementptr inbounds %"class.glslang::TIntermTraverser", ptr %15, i32 0, i32 3
  %25 = load i8, ptr %9, align 1
  %26 = trunc i8 %25 to i1
  %27 = zext i1 %26 to i8
  store i8 %27, ptr %24, align 2
  %28 = getelementptr inbounds %"class.glslang::TIntermTraverser", ptr %15, i32 0, i32 4
  %29 = load i8, ptr %10, align 1
  %30 = trunc i8 %29 to i1
  %31 = zext i1 %30 to i8
  store i8 %31, ptr %28, align 1
  %32 = getelementptr inbounds %"class.glslang::TIntermTraverser", ptr %15, i32 0, i32 5
  store i32 0, ptr %32, align 4
  %33 = getelementptr inbounds %"class.glslang::TIntermTraverser", ptr %15, i32 0, i32 6
  store i32 0, ptr %33, align 8
  %34 = getelementptr inbounds %"class.glslang::TIntermTraverser", ptr %15, i32 0, i32 7
  call void @_ZN7glslang7TVectorIP11TIntermNodeEC2Ev(ptr noundef nonnull align 8 dereferenceable(32) %34)
  ret void
}

; Function Attrs: mustprogress nounwind uwtable
define linkonce_odr void @_ZN7glslang15TConstTraverserD2Ev(ptr noundef nonnull align 8 dereferenceable(120) %0) unnamed_addr #0 comdat align 2 {
  %2 = alloca ptr, align 8
  store ptr %0, ptr %2, align 8
  %3 = load ptr, ptr %2, align 8
  %4 = getelementptr inbounds %"class.glslang::TConstTraverser", ptr %3, i32 0, i32 2
  call void @_ZN7glslang16TConstUnionArrayD2Ev(ptr noundef nonnull align 8 dereferenceable(16) %4) #4
  call void @_ZN7glslang16TIntermTraverserD2Ev(ptr noundef nonnull align 8 dereferenceable(56) %3) #4
  ret void
}

; Function Attrs: mustprogress nounwind uwtable
define linkonce_odr void @_ZN7glslang15TConstTraverserC2ERKNS_16TConstUnionArrayEbNS_9TOperatorERKNS_5TTypeE(ptr noundef nonnull align 8 dereferenceable(120) %0, ptr noundef nonnull align 8 dereferenceable(16) %1, i1 noundef zeroext %2, i32 noundef %3, ptr noundef nonnull align 8 dereferenceable(152) %4) unnamed_addr #0 comdat align 2 {
  %6 = alloca ptr, align 8
  %7 = alloca ptr, align 8
  %8 = alloca i8, align 1
  %9 = alloca i32, align 4
  %10 = alloca ptr, align 8
  store ptr %0, ptr %6, align 8
  store ptr %1, ptr %7, align 8
  %11 = zext i1 %2 to i8
  store i8 %11, ptr %8, align 1
  store i32 %3, ptr %9, align 4
  store ptr %4, ptr %10, align 8
  %12 = load ptr, ptr %6, align 8
  call void @_ZN7glslang16TIntermTraverserC2Ebbbb(ptr noundef nonnull align 8 dereferenceable(56) %12, i1 noundef zeroext true, i1 noundef zeroext false, i1 noundef zeroext false, i1 noundef zeroext false)
  store ptr getelementptr inbounds inrange(-16, 88) ({ [13 x ptr] }, ptr @_ZTVN7glslang15TConstTraverserE, i32 0, i32 0, i32 2), ptr %12, align 8
  %13 = getelementptr inbounds %"class.glslang::TConstTraverser", ptr %12, i32 0, i32 2
  %14 = load ptr, ptr %7, align 8
  call void @_ZN7glslang16TConstUnionArrayC2ERKS0_(ptr noundef nonnull align 8 dereferenceable(16) %13, ptr noundef nonnull align 8 dereferenceable(16) %14) #4
  %15 = getelementptr inbounds %"class.glslang::TConstTraverser", ptr %12, i32 0, i32 4
  %16 = load ptr, ptr %10, align 8
  store ptr %16, ptr %15, align 8
  %17 = getelementptr inbounds %"class.glslang::TConstTraverser", ptr %12, i32 0, i32 5
  %18 = load i32, ptr %9, align 4
  store i32 %18, ptr %17, align 8
  %19 = getelementptr inbounds %"class.glslang::TConstTraverser", ptr %12, i32 0, i32 6
  %20 = load i8, ptr %8, align 1
  %21 = trunc i8 %20 to i1
  %22 = zext i1 %21 to i8
  store i8 %22, ptr %19, align 4
  %23 = getelementptr inbounds %"class.glslang::TConstTraverser", ptr %12, i32 0, i32 7
  store i8 0, ptr %23, align 1
  %24 = getelementptr inbounds %"class.glslang::TConstTraverser", ptr %12, i32 0, i32 9
  store i8 0, ptr %24, align 4
  %25 = getelementptr inbounds %"class.glslang::TConstTraverser", ptr %12, i32 0, i32 10
  store i32 0, ptr %25, align 8
  %26 = getelementptr inbounds %"class.glslang::TConstTraverser", ptr %12, i32 0, i32 11
  store i32 0, ptr %26, align 4
  %27 = getelementptr inbounds %"class.glslang::TConstTraverser", ptr %12, i32 0, i32 1
  store i32 0, ptr %27, align 8
  %28 = getelementptr inbounds %"class.glslang::TConstTraverser", ptr %12, i32 0, i32 3
  store i32 0, ptr %28, align 8
  ret void
}

; Function Attrs: mustprogress nounwind uwtable
define noundef zeroext i1 @_ZN7glslang13TIntermediate14parseConstTreeEP11TIntermNodeNS_16TConstUnionArrayENS_9TOperatorERKNS_5TTypeEb(ptr noundef nonnull align 8 dereferenceable(2024) %0, ptr noundef %1, ptr noundef %2, i32 noundef %3, ptr noundef nonnull align 8 dereferenceable(152) %4, i1 noundef zeroext %5) #0 align 2 {
  %7 = alloca i1, align 1
  %8 = alloca ptr, align 8
  %9 = alloca ptr, align 8
  %10 = alloca ptr, align 8
  %11 = alloca i32, align 4
  %12 = alloca ptr, align 8
  %13 = alloca i8, align 1
  %14 = alloca %"class.glslang::TConstTraverser", align 8
  %15 = alloca i32, align 4
  store ptr %0, ptr %8, align 8
  store ptr %1, ptr %9, align 8
  store ptr %2, ptr %10, align 8
  store i32 %3, ptr %11, align 4
  store ptr %4, ptr %12, align 8
  %16 = zext i1 %5 to i8
  store i8 %16, ptr %13, align 1
  %17 = load ptr, ptr %9, align 8
  %18 = icmp eq ptr %17, null
  br i1 %18, label %19, label %20

19:                                               ; preds = %6
  store i1 false, ptr %7, align 1
  br label %35

20:                                               ; preds = %6
  %21 = load i8, ptr %13, align 1
  %22 = trunc i8 %21 to i1
  %23 = load i32, ptr %11, align 4
  %24 = load ptr, ptr %12, align 8
  call void @_ZN7glslang15TConstTraverserC2ERKNS_16TConstUnionArrayEbNS_9TOperatorERKNS_5TTypeE(ptr noundef nonnull align 8 dereferenceable(120) %14, ptr noundef nonnull align 8 dereferenceable(16) %2, i1 noundef zeroext %22, i32 noundef %23, ptr noundef nonnull align 8 dereferenceable(152) %24)
  %25 = load ptr, ptr %9, align 8
  %26 = load ptr, ptr %25, align 8
  %27 = getelementptr inbounds ptr, ptr %26, i64 2
  %28 = load ptr, ptr %27, align 8
  call void %28(ptr noundef nonnull align 8 dereferenceable(32) %25, ptr noundef %14)
  %29 = getelementptr inbounds %"class.glslang::TConstTraverser", ptr %14, i32 0, i32 7
  %30 = load i8, ptr %29, align 1
  %31 = trunc i8 %30 to i1
  br i1 %31, label %32, label %33

32:                                               ; preds = %20
  store i1 true, ptr %7, align 1
  store i32 1, ptr %15, align 4
  br label %34

33:                                               ; preds = %20
  store i1 false, ptr %7, align 1
  store i32 1, ptr %15, align 4
  br label %34

34:                                               ; preds = %33, %32
  call void @_ZN7glslang15TConstTraverserD2Ev(ptr noundef nonnull align 8 dereferenceable(120) %14) #4
  br label %35

35:                                               ; preds = %34, %19
  %36 = load i1, ptr %7, align 1
  ret i1 %36
}