; Function Attrs: mustprogress nounwind uwtable
define noundef zeroext i1 @_ZN7glslang13TIntermediate14parseConstTreeEP11TIntermNodeNS_16TConstUnionArrayENS_9TOperatorERKNS_5TTypeEb(ptr noundef nonnull readnone align 8 captures(none) dereferenceable(2024) %0, ptr noundef %1, ptr noundef readonly captures(none) %2, i32 noundef %3, ptr noundef nonnull align 8 dereferenceable(152) %4, i1 noundef zeroext %5) local_unnamed_addr #0 align 2 {
  %7 = alloca %"class.glslang::TConstTraverser", align 8
  %8 = icmp eq ptr %1, null
  br i1 %8, label %34, label %9

9:                                                ; preds = %6
  %10 = zext i1 %5 to i8
  %11 = getelementptr inbounds nuw i8, ptr %7, i64 8
  store i8 1, ptr %11, align 8
  %12 = getelementptr inbounds nuw i8, ptr %7, i64 9
  %13 = getelementptr inbounds nuw i8, ptr %7, i64 24
  call void @llvm.memset.p0.i64(ptr noundef nonnull align 1 dereferenceable(11) %12, i8 0, i64 11, i1 false)
  %14 = tail call noundef nonnull align 8 dereferenceable(96) ptr @_ZN7glslang22GetThreadPoolAllocatorEv() #5
  store ptr %14, ptr %13, align 8
  %15 = getelementptr inbounds nuw i8, ptr %7, i64 32
  call void @llvm.memset.p0.i64(ptr noundef nonnull align 8 dereferenceable(24) %15, i8 0, i64 24, i1 false)
  store ptr getelementptr inbounds nuw inrange(-16, 88) (i8, ptr @_ZTVN7glslang15TConstTraverserE, i64 16), ptr %7, align 8
  %16 = getelementptr inbounds nuw i8, ptr %7, i64 64
  store ptr getelementptr inbounds nuw inrange(-16, 16) (i8, ptr @_ZTVN7glslang16TConstUnionArrayE, i64 16), ptr %16, align 8
  %17 = getelementptr inbounds nuw i8, ptr %7, i64 72
  %18 = getelementptr inbounds nuw i8, ptr %2, i64 8
  %19 = load ptr, ptr %18, align 8
  store ptr %19, ptr %17, align 8
  %20 = getelementptr inbounds nuw i8, ptr %7, i64 88
  store ptr %4, ptr %20, align 8
  %21 = getelementptr inbounds nuw i8, ptr %7, i64 96
  store i32 %3, ptr %21, align 8
  %22 = getelementptr inbounds nuw i8, ptr %7, i64 100
  store i8 %10, ptr %22, align 4
  %23 = getelementptr inbounds nuw i8, ptr %7, i64 101
  store i8 0, ptr %23, align 1
  %24 = getelementptr inbounds nuw i8, ptr %7, i64 108
  store i8 0, ptr %24, align 4
  %25 = getelementptr inbounds nuw i8, ptr %7, i64 112
  store i32 0, ptr %25, align 8
  %26 = getelementptr inbounds nuw i8, ptr %7, i64 116
  store i32 0, ptr %26, align 4
  %27 = getelementptr inbounds nuw i8, ptr %7, i64 56
  store i32 0, ptr %27, align 8
  %28 = getelementptr inbounds nuw i8, ptr %7, i64 80
  store i32 0, ptr %28, align 8
  %29 = load ptr, ptr %1, align 8
  %30 = getelementptr inbounds nuw i8, ptr %29, i64 16
  %31 = load ptr, ptr %30, align 8
  call void %31(ptr noundef nonnull align 8 dereferenceable(32) %1, ptr noundef nonnull %7) #5
  %32 = load i8, ptr %23, align 1
  %33 = trunc i8 %32 to i1
  br label %34

34:                                               ; preds = %6, %9
  %.0 = phi i1 [ %33, %9 ], [ false, %6 ]
  ret i1 %.0
}